(dp0
(F5.656854249492381
F4.756828460010884
S'reverse'
p1
tp2
I368
s(F16.0
F2.378414230005442
S'forward'
p3
tp4
I598
s(F1.4142135623730951
F1.4142135623730951
g1
tp5
I621
s(F1.681792830507429
F64.0
g1
tp6
I6
s(F1.4142135623730951
F26.908685288118864
g3
tp7
I24
s(F19.027313840043536
F53.81737057623773
g1
tp8
I12
s(F13.454342644059432
F11.313708498984761
g1
tp9
I82
s(F32.0
F5.656854249492381
g3
tp10
I272
s(F53.81737057623773
F2.378414230005442
g3
tp11
I602
s(F4.0
F1.681792830507429
g1
tp12
I621
s(F19.027313840043536
F64.0
g3
tp13
I8
s(F4.756828460010884
F9.513656920021768
g3
tp14
I116
s(F3.363585661014858
F2.378414230005442
g1
tp15
I609
s(F1.0
F26.908685288118864
g1
tp16
I25
s(F1.681792830507429
F3.363585661014858
g3
tp17
I514
s(F1.681792830507429
F64.0
g3
tp18
I5
s(F1.4142135623730951
F2.8284271247461903
g1
tp19
I582
s(F6.727171322029716
F3.363585661014858
g3
tp20
I510
s(F5.656854249492381
F3.363585661014858
g3
tp21
I518
s(F4.0
F4.756828460010884
g3
tp22
I372
s(F2.8284271247461903
F45.254833995939045
g3
tp23
I12
s(F3.363585661014858
F64.0
g1
tp24
I6
s(F13.454342644059432
F1.4142135623730951
g1
tp25
I624
s(F5.656854249492381
F2.378414230005442
g1
tp26
I608
s(F32.0
F9.513656920021768
g3
tp27
I112
s(F2.378414230005442
F64.0
g1
tp28
I6
s(F32.0
F1.0
g3
tp29
I623
s(F11.313708498984761
F32.0
g3
tp30
I19
s(F1.4142135623730951
F11.313708498984761
g3
tp31
I90
s(F1.0
F9.513656920021768
g3
tp32
I118
s(F64.0
F2.0
g3
tp33
I621
s(F11.313708498984761
F1.189207115002721
g1
tp34
I621
s(F1.0
F6.727171322029716
g1
tp35
I206
s(F53.81737057623773
F16.0
g1
tp36
I60
s(F19.027313840043536
F16.0
g1
tp37
I57
s(F4.756828460010884
F45.254833995939045
g1
tp38
I11
s(F53.81737057623773
F4.756828460010884
g3
tp39
I360
s(F26.908685288118864
F53.81737057623773
g1
tp40
I9
s(F13.454342644059432
F16.0
g1
tp41
I57
s(F38.05462768008707
F11.313708498984761
g3
tp42
I95
s(F3.363585661014858
F1.4142135623730951
g3
tp43
I624
s(F38.05462768008707
F22.627416997969522
g1
tp44
I39
s(F1.0
F22.627416997969522
g3
tp45
I32
s(F1.189207115002721
F16.0
g3
tp46
I54
s(F5.656854249492381
F1.0
g3
tp47
I618
s(F16.0
F11.313708498984761
g1
tp48
I83
s(F4.756828460010884
F4.756828460010884
g1
tp49
I378
s(F2.378414230005442
F4.0
g3
tp50
I436
s(F26.908685288118864
F19.027313840043536
g1
tp51
I43
s(F22.627416997969522
F1.0
g3
tp52
I618
s(F45.254833995939045
F22.627416997969522
g3
tp53
I31
s(F4.756828460010884
F5.656854249492381
g1
tp54
I289
s(F26.908685288118864
F64.0
g1
tp55
I7
s(F16.0
F1.0
g3
tp56
I621
s(F1.681792830507429
F4.0
g1
tp57
I467
s(F13.454342644059432
F26.908685288118864
g3
tp58
I21
s(F19.027313840043536
F8.0
g3
tp59
I154
s(F11.313708498984761
F2.8284271247461903
g3
tp60
I566
s(F3.363585661014858
F11.313708498984761
g3
tp61
I92
s(F53.81737057623773
F64.0
g3
tp62
I7
s(F6.727171322029716
F11.313708498984761
g1
tp63
I85
s(F19.027313840043536
F1.681792830507429
g1
tp64
I621
s(F8.0
F6.727171322029716
g1
tp65
I216
s(F8.0
F64.0
g1
tp66
I6
s(F8.0
F53.81737057623773
g1
tp67
I9
s(F1.0
F1.681792830507429
g3
tp68
I623
s(F6.727171322029716
F8.0
g3
tp69
I157
s(F45.254833995939045
F53.81737057623773
g1
tp70
I8
s(F13.454342644059432
F4.756828460010884
g1
tp71
I372
s(F4.0
F3.363585661014858
g1
tp72
I542
s(F38.05462768008707
F5.656854249492381
g1
tp73
I279
s(F3.363585661014858
F1.189207115002721
g3
tp74
I623
s(F26.908685288118864
F16.0
g3
tp75
I54
s(F2.8284271247461903
F2.0
g1
tp76
I621
s(F53.81737057623773
F53.81737057623773
g3
tp77
I11
s(F19.027313840043536
F4.0
g1
tp78
I472
s(F22.627416997969522
F11.313708498984761
g3
tp79
I89
s(F3.363585661014858
F22.627416997969522
g1
tp80
I34
s(F3.363585661014858
F2.8284271247461903
g1
tp81
I586
s(F13.454342644059432
F1.189207115002721
g1
tp82
I620
s(F38.05462768008707
F26.908685288118864
g3
tp83
I27
s(F1.189207115002721
F32.0
g3
tp84
I23
s(F4.0
F26.908685288118864
g3
tp85
I29
s(F4.756828460010884
F19.027313840043536
g3
tp86
I44
s(F64.0
F5.656854249492381
g3
tp87
I274
s(F32.0
F2.0
g3
tp88
I613
s(F1.4142135623730951
F3.363585661014858
g1
tp89
I533
s(F1.0
F1.4142135623730951
g1
tp90
I621
s(F22.627416997969522
F64.0
g1
tp91
I5
s(F32.0
F16.0
g1
tp92
I53
s(F6.727171322029716
F19.027313840043536
g3
tp93
I44
s(F9.513656920021768
F2.0
g1
tp94
I619
s(F11.313708498984761
F19.027313840043536
g1
tp95
I47
s(F11.313708498984761
F2.8284271247461903
g1
tp96
I579
s(F2.378414230005442
F4.0
g1
tp97
I460
s(F45.254833995939045
F45.254833995939045
g3
tp98
I13
s(F2.378414230005442
F8.0
g3
tp99
I138
s(F6.727171322029716
F2.8284271247461903
g1
tp100
I585
s(F8.0
F2.0
g1
tp101
I621
s(F22.627416997969522
F2.378414230005442
g3
tp102
I600
s(F4.756828460010884
F6.727171322029716
g3
tp103
I195
s(F6.727171322029716
F16.0
g1
tp104
I57
s(F22.627416997969522
F16.0
g1
tp105
I62
s(F4.0
F13.454342644059432
g3
tp106
I75
s(F1.4142135623730951
F4.0
g1
tp107
I465
s(F19.027313840043536
F2.8284271247461903
g1
tp108
I581
s(F19.027313840043536
F26.908685288118864
g1
tp109
I30
s(F38.05462768008707
F1.189207115002721
g3
tp110
I623
s(F1.681792830507429
F4.756828460010884
g1
tp111
I380
s(F2.378414230005442
F53.81737057623773
g3
tp112
I11
s(F6.727171322029716
F38.05462768008707
g1
tp113
I14
s(F22.627416997969522
F53.81737057623773
g3
tp114
I12
s(F4.756828460010884
F1.681792830507429
g3
tp115
I621
s(F16.0
F38.05462768008707
g1
tp116
I16
s(F1.4142135623730951
F1.681792830507429
g3
tp117
I620
s(F38.05462768008707
F1.681792830507429
g3
tp118
I620
s(F53.81737057623773
F6.727171322029716
g1
tp119
I204
s(F19.027313840043536
F1.0
g1
tp120
I615
s(F53.81737057623773
F1.4142135623730951
g1
tp121
I622
s(F2.0
F4.756828460010884
g1
tp122
I379
s(F1.681792830507429
F2.8284271247461903
g1
tp123
I585
s(F1.189207115002721
F53.81737057623773
g3
tp124
I8
s(F38.05462768008707
F6.727171322029716
g1
tp125
I209
s(F2.0
F1.189207115002721
g1
tp126
I623
s(F1.681792830507429
F16.0
g3
tp127
I56
s(F1.0
F1.0
g1
tp128
I612
s(F1.0
F8.0
g3
tp129
I143
s(F2.0
F4.756828460010884
g3
tp130
I356
s(F1.189207115002721
F1.189207115002721
g1
tp131
I621
s(F1.4142135623730951
F9.513656920021768
g3
tp132
I117
s(F6.727171322029716
F9.513656920021768
g3
tp133
I118
s(F64.0
F6.727171322029716
g1
tp134
I214
s(F2.0
F3.363585661014858
g3
tp135
I518
s(F64.0
F45.254833995939045
g3
tp136
I13
s(F64.0
F9.513656920021768
g3
tp137
I111
s(F9.513656920021768
F4.0
g3
tp138
I425
s(F8.0
F45.254833995939045
g3
tp139
I14
s(F2.0
F16.0
g1
tp140
I57
s(F5.656854249492381
F9.513656920021768
g1
tp141
I112
s(F16.0
F11.313708498984761
g3
tp142
I94
s(F26.908685288118864
F64.0
g3
tp143
I10
s(F4.756828460010884
F32.0
g1
tp144
I23
s(F11.313708498984761
F26.908685288118864
g3
tp145
I23
s(F9.513656920021768
F3.363585661014858
g3
tp146
I503
s(F16.0
F45.254833995939045
g1
tp147
I14
s(F22.627416997969522
F11.313708498984761
g1
tp148
I90
s(F5.656854249492381
F2.8284271247461903
g1
tp149
I583
s(F9.513656920021768
F22.627416997969522
g1
tp150
I34
s(F38.05462768008707
F64.0
g3
tp151
I6
s(F2.378414230005442
F38.05462768008707
g3
tp152
I16
s(F32.0
F38.05462768008707
g1
tp153
I19
s(F1.0
F13.454342644059432
g3
tp154
I73
s(F6.727171322029716
F6.727171322029716
g1
tp155
I208
s(F64.0
F1.681792830507429
g1
tp156
I623
s(F9.513656920021768
F8.0
g1
tp157
I143
s(F4.0
F4.0
g3
tp158
I440
s(F11.313708498984761
F1.4142135623730951
g1
tp159
I623
s(F4.756828460010884
F1.4142135623730951
g1
tp160
I623
s(F6.727171322029716
F1.681792830507429
g3
tp161
I622
s(F1.0
F11.313708498984761
g3
tp162
I93
s(F2.8284271247461903
F3.363585661014858
g3
tp163
I506
s(F8.0
F8.0
g3
tp164
I144
s(F53.81737057623773
F5.656854249492381
g3
tp165
I282
s(F1.0
F8.0
g1
tp166
I143
s(F2.378414230005442
F53.81737057623773
g1
tp167
I11
s(F4.0
F1.0
g1
tp168
I620
s(F1.681792830507429
F1.4142135623730951
g3
tp169
I623
s(F2.0
F1.681792830507429
g1
tp170
I624
s(F2.378414230005442
F38.05462768008707
g1
tp171
I14
s(F9.513656920021768
F38.05462768008707
g1
tp172
I14
s(F22.627416997969522
F38.05462768008707
g3
tp173
I16
s(F53.81737057623773
F1.4142135623730951
g3
tp174
I623
s(F22.627416997969522
F2.0
g3
tp175
I617
s(F64.0
F45.254833995939045
g1
tp176
I12
s(F2.378414230005442
F45.254833995939045
g1
tp177
I12
s(F5.656854249492381
F1.4142135623730951
g1
tp178
I622
s(F26.908685288118864
F4.756828460010884
g3
tp179
I343
s(F11.313708498984761
F3.363585661014858
g1
tp180
I547
s(F22.627416997969522
F1.4142135623730951
g1
tp181
I620
s(F3.363585661014858
F26.908685288118864
g3
tp182
I22
s(F22.627416997969522
F13.454342644059432
g3
tp183
I75
s(F11.313708498984761
F2.378414230005442
g3
tp184
I597
s(F1.4142135623730951
F5.656854249492381
g3
tp185
I282
s(F2.0
F6.727171322029716
g1
tp186
I202
s(F1.681792830507429
F8.0
g3
tp187
I150
s(F19.027313840043536
F38.05462768008707
g1
tp188
I16
s(F1.0
F16.0
g3
tp189
I60
s(F22.627416997969522
F8.0
g3
tp190
I158
s(F1.4142135623730951
F32.0
g1
tp191
I18
s(F2.8284271247461903
F4.0
g3
tp192
I425
s(F45.254833995939045
F5.656854249492381
g1
tp193
I277
s(F8.0
F4.756828460010884
g1
tp194
I374
s(F4.756828460010884
F11.313708498984761
g3
tp195
I89
s(F4.756828460010884
F2.378414230005442
g1
tp196
I610
s(F4.0
F6.727171322029716
g1
tp197
I197
s(F11.313708498984761
F38.05462768008707
g3
tp198
I15
s(F2.0
F2.8284271247461903
g3
tp199
I567
s(F19.027313840043536
F19.027313840043536
g1
tp200
I44
s(F64.0
F16.0
g1
tp201
I58
s(F2.0
F8.0
g1
tp202
I149
s(F45.254833995939045
F1.4142135623730951
g3
tp203
I623
s(F4.0
F19.027313840043536
g1
tp204
I43
s(F2.378414230005442
F16.0
g3
tp205
I61
s(F2.8284271247461903
F64.0
g1
tp206
I7
s(F45.254833995939045
F6.727171322029716
g3
tp207
I211
s(F11.313708498984761
F1.4142135623730951
g3
tp208
I621
s(F6.727171322029716
F11.313708498984761
g3
tp209
I93
s(F22.627416997969522
F4.0
g3
tp210
I444
s(F64.0
F1.4142135623730951
g1
tp211
I622
s(F32.0
F32.0
g1
tp212
I20
s(F1.0
F2.378414230005442
g3
tp213
I604
s(F8.0
F1.0
g1
tp214
I620
s(F3.363585661014858
F2.8284271247461903
g3
tp215
I558
s(F9.513656920021768
F4.756828460010884
g3
tp216
I344
s(F64.0
F3.363585661014858
g1
tp217
I544
s(F2.8284271247461903
F19.027313840043536
g1
tp218
I48
s(F9.513656920021768
F45.254833995939045
g1
tp219
I11
s(F2.8284271247461903
F2.8284271247461903
g1
tp220
I593
s(F32.0
F19.027313840043536
g3
tp221
I45
s(F8.0
F32.0
g3
tp222
I21
s(F13.454342644059432
F32.0
g3
tp223
I15
s(F19.027313840043536
F1.0
g3
tp224
I619
s(F8.0
F5.656854249492381
g3
tp225
I262
s(F13.454342644059432
F45.254833995939045
g3
tp226
I13
s(F3.363585661014858
F1.4142135623730951
g1
tp227
I624
s(F22.627416997969522
F32.0
g1
tp228
I20
s(F45.254833995939045
F1.0
g3
tp229
I620
s(F4.0
F53.81737057623773
g3
tp230
I12
s(F9.513656920021768
F1.681792830507429
g1
tp231
I622
s(F9.513656920021768
F53.81737057623773
g1
tp232
I9
s(F2.378414230005442
F9.513656920021768
g1
tp233
I106
s(F5.656854249492381
F9.513656920021768
g3
tp234
I111
s(F13.454342644059432
F1.681792830507429
g1
tp235
I624
s(F9.513656920021768
F1.4142135623730951
g1
tp236
I621
s(F5.656854249492381
F45.254833995939045
g1
tp237
I11
s(F64.0
F16.0
g3
tp238
I55
s(F26.908685288118864
F16.0
g1
tp239
I59
s(F22.627416997969522
F9.513656920021768
g3
tp240
I114
s(F13.454342644059432
F1.4142135623730951
g3
tp241
I621
s(F1.681792830507429
F6.727171322029716
g1
tp242
I202
s(F4.756828460010884
F53.81737057623773
g1
tp243
I9
s(F1.189207115002721
F16.0
g1
tp244
I56
s(F38.05462768008707
F8.0
g3
tp245
I150
s(F2.378414230005442
F2.8284271247461903
g3
tp246
I572
s(F45.254833995939045
F4.0
g3
tp247
I444
s(F5.656854249492381
F64.0
g3
tp248
I6
s(F2.378414230005442
F16.0
g1
tp249
I52
s(F19.027313840043536
F64.0
g1
tp250
I8
s(F2.378414230005442
F26.908685288118864
g3
tp251
I34
s(F8.0
F1.4142135623730951
g1
tp252
I622
s(F32.0
F45.254833995939045
g3
tp253
I10
s(F16.0
F1.189207115002721
g1
tp254
I617
s(F4.756828460010884
F1.189207115002721
g1
tp255
I621
s(F38.05462768008707
F2.378414230005442
g1
tp256
I607
s(F45.254833995939045
F1.4142135623730951
g1
tp257
I622
s(F1.681792830507429
F11.313708498984761
g1
tp258
I93
s(F2.0
F9.513656920021768
g3
tp259
I114
s(F8.0
F2.8284271247461903
g1
tp260
I585
s(F2.0
F22.627416997969522
g3
tp261
I34
s(F38.05462768008707
F5.656854249492381
g3
tp262
I276
s(F1.4142135623730951
F2.8284271247461903
g3
tp263
I560
s(F1.4142135623730951
F45.254833995939045
g1
tp264
I12
s(F2.378414230005442
F1.4142135623730951
g3
tp265
I622
s(F11.313708498984761
F19.027313840043536
g3
tp266
I44
s(F1.189207115002721
F3.363585661014858
g3
tp267
I513
s(F2.8284271247461903
F9.513656920021768
g3
tp268
I115
s(F1.0
F26.908685288118864
g3
tp269
I26
s(F3.363585661014858
F3.363585661014858
g1
tp270
I541
s(F4.0
F13.454342644059432
g1
tp271
I70
s(F13.454342644059432
F1.189207115002721
g3
tp272
I621
s(F19.027313840043536
F1.4142135623730951
g1
tp273
I619
s(F38.05462768008707
F16.0
g3
tp274
I56
s(F26.908685288118864
F2.8284271247461903
g3
tp275
I572
s(F13.454342644059432
F2.8284271247461903
g1
tp276
I582
s(F22.627416997969522
F1.189207115002721
g3
tp277
I617
s(F53.81737057623773
F19.027313840043536
g1
tp278
I46
s(F32.0
F38.05462768008707
g3
tp279
I14
s(F16.0
F22.627416997969522
g3
tp280
I32
s(F45.254833995939045
F32.0
g3
tp281
I20
s(F16.0
F6.727171322029716
g1
tp282
I206
s(F32.0
F11.313708498984761
g3
tp283
I88
s(F1.681792830507429
F1.681792830507429
g1
tp284
I622
s(F32.0
F2.8284271247461903
g3
tp285
I566
s(F13.454342644059432
F64.0
g1
tp286
I8
s(F2.8284271247461903
F13.454342644059432
g3
tp287
I74
s(F5.656854249492381
F2.378414230005442
g3
tp288
I601
s(F2.378414230005442
F5.656854249492381
g3
tp289
I282
s(F2.8284271247461903
F1.0
g1
tp290
I614
s(F22.627416997969522
F16.0
g3
tp291
I59
s(F6.727171322029716
F13.454342644059432
g1
tp292
I65
s(F26.908685288118864
F19.027313840043536
g3
tp293
I45
s(F32.0
F13.454342644059432
g3
tp294
I69
s(F2.0
F2.0
g1
tp295
I620
s(F9.513656920021768
F22.627416997969522
g3
tp296
I35
s(F3.363585661014858
F6.727171322029716
g3
tp297
I196
s(F1.4142135623730951
F3.363585661014858
g3
tp298
I505
s(F53.81737057623773
F2.378414230005442
g1
tp299
I602
s(F11.313708498984761
F4.0
g3
tp300
I422
s(F2.378414230005442
F22.627416997969522
g3
tp301
I39
s(F2.8284271247461903
F1.681792830507429
g3
tp302
I621
s(F4.0
F11.313708498984761
g3
tp303
I95
s(F11.313708498984761
F1.189207115002721
g3
tp304
I621
s(F16.0
F1.681792830507429
g1
tp305
I622
s(F26.908685288118864
F4.756828460010884
g1
tp306
I372
s(F1.189207115002721
F26.908685288118864
g1
tp307
I26
s(F5.656854249492381
F1.189207115002721
g1
tp308
I621
s(F4.756828460010884
F3.363585661014858
g1
tp309
I542
s(F4.0
F45.254833995939045
g3
tp310
I12
s(F8.0
F19.027313840043536
g1
tp311
I52
s(F19.027313840043536
F2.0
g1
tp312
I615
s(F4.756828460010884
F9.513656920021768
g1
tp313
I109
s(F3.363585661014858
F8.0
g1
tp314
I147
s(F1.681792830507429
F38.05462768008707
g1
tp315
I14
s(F45.254833995939045
F2.0
g3
tp316
I618
s(F4.0
F16.0
g3
tp317
I60
s(F2.0
F13.454342644059432
g3
tp318
I77
s(F26.908685288118864
F2.378414230005442
g3
tp319
I601
s(F32.0
F4.0
g1
tp320
I464
s(F1.189207115002721
F22.627416997969522
g1
tp321
I37
s(F3.363585661014858
F53.81737057623773
g3
tp322
I8
s(F5.656854249492381
F16.0
g3
tp323
I60
s(F1.681792830507429
F19.027313840043536
g1
tp324
I51
s(F53.81737057623773
F32.0
g1
tp325
I19
s(F1.189207115002721
F1.189207115002721
g3
tp326
I622
s(F13.454342644059432
F64.0
g3
tp327
I7
s(F2.0
F19.027313840043536
g3
tp328
I44
s(F26.908685288118864
F1.0
g1
tp329
I617
s(F45.254833995939045
F8.0
g3
tp330
I154
s(F45.254833995939045
F2.0
g1
tp331
I621
s(F45.254833995939045
F38.05462768008707
g1
tp332
I16
s(F26.908685288118864
F1.0
g3
tp333
I621
s(F22.627416997969522
F38.05462768008707
g1
tp334
I16
s(F38.05462768008707
F4.756828460010884
g3
tp335
I359
s(F16.0
F1.681792830507429
g3
tp336
I623
s(F13.454342644059432
F8.0
g1
tp337
I144
s(F32.0
F4.756828460010884
g3
tp338
I335
s(F3.363585661014858
F26.908685288118864
g1
tp339
I26
s(F6.727171322029716
F4.756828460010884
g3
tp340
I351
s(F1.4142135623730951
F16.0
g3
tp341
I60
s(F26.908685288118864
F2.0
g3
tp342
I618
s(F8.0
F1.189207115002721
g3
tp343
I622
s(F4.756828460010884
F22.627416997969522
g3
tp344
I29
s(F38.05462768008707
F13.454342644059432
g1
tp345
I65
s(F1.4142135623730951
F1.0
g3
tp346
I622
s(F5.656854249492381
F32.0
g3
tp347
I17
s(F53.81737057623773
F13.454342644059432
g1
tp348
I71
s(F32.0
F9.513656920021768
g1
tp349
I110
s(F38.05462768008707
F1.681792830507429
g1
tp350
I622
s(F9.513656920021768
F32.0
g3
tp351
I22
s(F8.0
F5.656854249492381
g1
tp352
I287
s(F2.0
F64.0
g1
tp353
I6
s(F1.0
F64.0
g3
tp354
I7
s(F4.0
F5.656854249492381
g1
tp355
I295
s(F26.908685288118864
F6.727171322029716
g1
tp356
I203
s(F8.0
F6.727171322029716
g3
tp357
I197
s(F64.0
F3.363585661014858
g3
tp358
I506
s(F19.027313840043536
F4.756828460010884
g3
tp359
I353
s(F6.727171322029716
F5.656854249492381
g1
tp360
I275
s(F45.254833995939045
F13.454342644059432
g3
tp361
I68
s(F22.627416997969522
F45.254833995939045
g3
tp362
I14
s(F11.313708498984761
F32.0
g1
tp363
I21
s(F11.313708498984761
F45.254833995939045
g3
tp364
I12
s(F3.363585661014858
F4.0
g1
tp365
I462
s(F9.513656920021768
F3.363585661014858
g1
tp366
I543
s(F9.513656920021768
F64.0
g1
tp367
I6
s(F16.0
F2.378414230005442
g1
tp368
I608
s(F13.454342644059432
F9.513656920021768
g1
tp369
I102
s(F13.454342644059432
F2.0
g1
tp370
I621
s(F53.81737057623773
F9.513656920021768
g1
tp371
I105
s(F16.0
F13.454342644059432
g3
tp372
I72
s(F64.0
F13.454342644059432
g3
tp373
I67
s(F2.378414230005442
F19.027313840043536
g1
tp374
I43
s(F16.0
F19.027313840043536
g1
tp375
I47
s(F4.756828460010884
F16.0
g1
tp376
I66
s(F13.454342644059432
F4.0
g1
tp377
I455
s(F2.8284271247461903
F8.0
g1
tp378
I143
s(F22.627416997969522
F6.727171322029716
g1
tp379
I210
s(F19.027313840043536
F3.363585661014858
g1
tp380
I544
s(F2.8284271247461903
F2.378414230005442
g3
tp381
I596
s(F5.656854249492381
F38.05462768008707
g3
tp382
I13
s(F8.0
F4.0
g3
tp383
I427
s(F53.81737057623773
F16.0
g3
tp384
I57
s(F8.0
F1.4142135623730951
g3
tp385
I621
s(F4.756828460010884
F2.8284271247461903
g3
tp386
I559
s(F6.727171322029716
F4.0
g3
tp387
I436
s(F2.0
F32.0
g3
tp388
I21
s(F53.81737057623773
F26.908685288118864
g1
tp389
I26
s(F16.0
F4.756828460010884
g3
tp390
I358
s(F1.4142135623730951
F26.908685288118864
g1
tp391
I28
s(F64.0
F1.0
g1
tp392
I617
s(F6.727171322029716
F64.0
g3
tp393
I9
s(F2.8284271247461903
F38.05462768008707
g1
tp394
I15
s(F2.378414230005442
F64.0
g3
tp395
I7
s(F32.0
F2.0
g1
tp396
I618
s(F3.363585661014858
F2.0
g3
tp397
I616
s(F19.027313840043536
F22.627416997969522
g3
tp398
I35
s(F8.0
F45.254833995939045
g1
tp399
I12
s(F16.0
F8.0
g1
tp400
I138
s(F38.05462768008707
F32.0
g3
tp401
I21
s(F4.756828460010884
F2.8284271247461903
g1
tp402
I583
s(F1.4142135623730951
F8.0
g1
tp403
I145
s(F26.908685288118864
F38.05462768008707
g1
tp404
I15
s(F1.189207115002721
F45.254833995939045
g3
tp405
I12
s(F9.513656920021768
F11.313708498984761
g3
tp406
I89
s(F1.4142135623730951
F22.627416997969522
g1
tp407
I32
s(F1.0
F38.05462768008707
g3
tp408
I11
s(F1.4142135623730951
F38.05462768008707
g3
tp409
I18
s(F3.363585661014858
F1.681792830507429
g1
tp410
I623
s(F8.0
F4.756828460010884
g3
tp411
I341
s(F13.454342644059432
F2.378414230005442
g3
tp412
I599
s(F6.727171322029716
F16.0
g3
tp413
I59
s(F16.0
F13.454342644059432
g1
tp414
I75
s(F5.656854249492381
F53.81737057623773
g3
tp415
I8
s(F26.908685288118864
F1.4142135623730951
g3
tp416
I624
s(F13.454342644059432
F22.627416997969522
g1
tp417
I36
s(F4.0
F1.4142135623730951
g3
tp418
I621
s(F22.627416997969522
F19.027313840043536
g3
tp419
I46
s(F2.0
F38.05462768008707
g1
tp420
I19
s(F2.8284271247461903
F5.656854249492381
g1
tp421
I287
s(F26.908685288118864
F32.0
g3
tp422
I18
s(F8.0
F1.0
g3
tp423
I622
s(F16.0
F16.0
g3
tp424
I56
s(F1.4142135623730951
F1.189207115002721
g3
tp425
I622
s(F1.0
F6.727171322029716
g3
tp426
I190
s(F6.727171322029716
F26.908685288118864
g1
tp427
I28
s(F1.0
F4.756828460010884
g1
tp428
I377
s(F26.908685288118864
F9.513656920021768
g3
tp429
I118
s(F2.378414230005442
F32.0
g3
tp430
I22
s(F1.681792830507429
F1.681792830507429
g3
tp431
I619
s(F4.0
F2.8284271247461903
g1
tp432
I585
s(F5.656854249492381
F1.681792830507429
g3
tp433
I621
s(F1.681792830507429
F9.513656920021768
g3
tp434
I118
s(F4.756828460010884
F2.0
g3
tp435
I617
s(F53.81737057623773
F11.313708498984761
g1
tp436
I83
s(F2.0
F8.0
g3
tp437
I151
s(F19.027313840043536
F13.454342644059432
g3
tp438
I80
s(F38.05462768008707
F53.81737057623773
g1
tp439
I11
s(F5.656854249492381
F64.0
g1
tp440
I7
s(F11.313708498984761
F6.727171322029716
g1
tp441
I195
s(F11.313708498984761
F53.81737057623773
g1
tp442
I11
s(F19.027313840043536
F2.0
g3
tp443
I611
s(F2.378414230005442
F13.454342644059432
g1
tp444
I67
s(F8.0
F38.05462768008707
g1
tp445
I16
s(F1.189207115002721
F19.027313840043536
g1
tp446
I44
s(F2.378414230005442
F1.189207115002721
g3
tp447
I621
s(F5.656854249492381
F45.254833995939045
g3
tp448
I11
s(F3.363585661014858
F9.513656920021768
g1
tp449
I113
s(F1.189207115002721
F19.027313840043536
g3
tp450
I41
s(F1.681792830507429
F53.81737057623773
g1
tp451
I9
s(F4.756828460010884
F1.189207115002721
g3
tp452
I620
s(F11.313708498984761
F8.0
g1
tp453
I157
s(F4.0
F38.05462768008707
g1
tp454
I16
s(F11.313708498984761
F6.727171322029716
g3
tp455
I209
s(F4.0
F32.0
g1
tp456
I20
s(F1.4142135623730951
F22.627416997969522
g3
tp457
I36
s(F1.189207115002721
F32.0
g1
tp458
I22
s(F3.363585661014858
F4.756828460010884
g1
tp459
I377
s(F4.0
F1.0
g3
tp460
I620
s(F8.0
F16.0
g1
tp461
I65
s(F11.313708498984761
F2.0
g1
tp462
I621
s(F2.8284271247461903
F1.4142135623730951
g1
tp463
I623
s(F4.0
F4.756828460010884
g1
tp464
I388
s(F11.313708498984761
F9.513656920021768
g3
tp465
I111
s(F5.656854249492381
F4.0
g1
tp466
I463
s(F2.0
F64.0
g3
tp467
I8
s(F13.454342644059432
F53.81737057623773
g1
tp468
I11
s(F9.513656920021768
F45.254833995939045
g3
tp469
I13
s(F1.0
F32.0
g1
tp470
I19
s(F26.908685288118864
F9.513656920021768
g1
tp471
I116
s(F53.81737057623773
F4.756828460010884
g1
tp472
I372
s(F11.313708498984761
F64.0
g3
tp473
I5
s(F2.8284271247461903
F1.4142135623730951
g3
tp474
I622
s(F6.727171322029716
F2.8284271247461903
g3
tp475
I574
s(F26.908685288118864
F1.4142135623730951
g1
tp476
I621
s(F45.254833995939045
F32.0
g1
tp477
I18
s(F64.0
F1.681792830507429
g3
tp478
I622
s(F26.908685288118864
F11.313708498984761
g1
tp479
I91
s(F1.189207115002721
F5.656854249492381
g3
tp480
I279
s(F1.681792830507429
F1.0
g1
tp481
I619
s(F32.0
F3.363585661014858
g3
tp482
I507
s(F19.027313840043536
F13.454342644059432
g1
tp483
I75
s(F9.513656920021768
F1.189207115002721
g3
tp484
I623
s(F64.0
F64.0
g3
tp485
I7
s(F45.254833995939045
F4.756828460010884
g3
tp486
I354
s(F53.81737057623773
F8.0
g3
tp487
I147
s(F1.4142135623730951
F2.0
g1
tp488
I620
s(F26.908685288118864
F13.454342644059432
g1
tp489
I72
s(F4.0
F1.4142135623730951
g1
tp490
I622
s(F19.027313840043536
F4.756828460010884
g1
tp491
I378
s(F11.313708498984761
F9.513656920021768
g1
tp492
I113
s(F2.0
F16.0
g3
tp493
I57
s(F5.656854249492381
F6.727171322029716
g3
tp494
I206
s(F32.0
F22.627416997969522
g1
tp495
I31
s(F2.8284271247461903
F2.378414230005442
g1
tp496
I616
s(F4.756828460010884
F38.05462768008707
g1
tp497
I14
s(F19.027313840043536
F11.313708498984761
g3
tp498
I91
s(F4.0
F6.727171322029716
g3
tp499
I216
s(F1.0
F16.0
g1
tp500
I59
s(F19.027313840043536
F1.189207115002721
g3
tp501
I620
s(F13.454342644059432
F1.0
g3
tp502
I620
s(F1.0
F1.0
g3
tp503
I624
s(F38.05462768008707
F19.027313840043536
g1
tp504
I45
s(F1.189207115002721
F26.908685288118864
g3
tp505
I25
s(F1.189207115002721
F45.254833995939045
g1
tp506
I15
s(F2.0
F6.727171322029716
g3
tp507
I199
s(F1.0
F2.378414230005442
g1
tp508
I608
s(F9.513656920021768
F5.656854249492381
g1
tp509
I271
s(F6.727171322029716
F2.378414230005442
g3
tp510
I604
s(F4.756828460010884
F1.4142135623730951
g3
tp511
I621
s(F13.454342644059432
F5.656854249492381
g3
tp512
I280
s(F6.727171322029716
F1.0
g1
tp513
I617
s(F64.0
F1.0
g3
tp514
I622
s(F2.378414230005442
F11.313708498984761
g3
tp515
I93
s(F4.0
F22.627416997969522
g1
tp516
I37
s(F2.8284271247461903
F45.254833995939045
g1
tp517
I14
s(F4.0
F8.0
g3
tp518
I158
s(F1.4142135623730951
F1.0
g1
tp519
I613
s(F4.756828460010884
F19.027313840043536
g1
tp520
I52
s(F2.0
F32.0
g1
tp521
I23
s(F53.81737057623773
F13.454342644059432
g3
tp522
I74
s(F4.756828460010884
F53.81737057623773
g3
tp523
I10
s(F53.81737057623773
F8.0
g1
tp524
I138
s(F5.656854249492381
F38.05462768008707
g1
tp525
I18
s(F2.8284271247461903
F1.681792830507429
g1
tp526
I623
s(F1.681792830507429
F19.027313840043536
g3
tp527
I50
s(F26.908685288118864
F3.363585661014858
g3
tp528
I500
s(F53.81737057623773
F3.363585661014858
g3
tp529
I505
s(F19.027313840043536
F8.0
g1
tp530
I150
s(F2.8284271247461903
F4.756828460010884
g1
tp531
I388
s(F1.681792830507429
F5.656854249492381
g3
tp532
I276
s(F9.513656920021768
F4.0
g1
tp533
I459
s(F1.189207115002721
F11.313708498984761
g1
tp534
I85
s(F38.05462768008707
F6.727171322029716
g3
tp535
I213
s(F32.0
F8.0
g3
tp536
I151
s(F1.4142135623730951
F11.313708498984761
g1
tp537
I89
s(F53.81737057623773
F19.027313840043536
g3
tp538
I46
s(F5.656854249492381
F22.627416997969522
g3
tp539
I33
s(F53.81737057623773
F2.0
g3
tp540
I620
s(F45.254833995939045
F11.313708498984761
g1
tp541
I94
s(F1.189207115002721
F38.05462768008707
g1
tp542
I17
s(F64.0
F2.8284271247461903
g3
tp543
I567
s(F2.8284271247461903
F38.05462768008707
g3
tp544
I17
s(F4.756828460010884
F22.627416997969522
g1
tp545
I38
s(F16.0
F32.0
g3
tp546
I22
s(F19.027313840043536
F6.727171322029716
g1
tp547
I203
s(F3.363585661014858
F13.454342644059432
g1
tp548
I74
s(F13.454342644059432
F4.756828460010884
g3
tp549
I350
s(F13.454342644059432
F53.81737057623773
g3
tp550
I9
s(F64.0
F19.027313840043536
g3
tp551
I45
s(F53.81737057623773
F1.0
g1
tp552
I614
s(F2.8284271247461903
F53.81737057623773
g3
tp553
I9
s(F53.81737057623773
F2.8284271247461903
g3
tp554
I570
s(F6.727171322029716
F45.254833995939045
g3
tp555
I12
s(F45.254833995939045
F26.908685288118864
g1
tp556
I27
s(F2.8284271247461903
F6.727171322029716
g3
tp557
I201
s(F38.05462768008707
F8.0
g1
tp558
I149
s(F6.727171322029716
F32.0
g1
tp559
I19
s(F1.189207115002721
F13.454342644059432
g3
tp560
I76
s(F38.05462768008707
F45.254833995939045
g3
tp561
I12
s(F16.0
F4.0
g1
tp562
I476
s(F5.656854249492381
F5.656854249492381
g1
tp563
I289
s(F53.81737057623773
F32.0
g3
tp564
I16
s(F32.0
F3.363585661014858
g1
tp565
I538
s(F64.0
F1.4142135623730951
g3
tp566
I623
s(F2.8284271247461903
F22.627416997969522
g3
tp567
I38
s(F16.0
F26.908685288118864
g1
tp568
I30
s(F64.0
F9.513656920021768
g1
tp569
I113
s(F16.0
F2.8284271247461903
g1
tp570
I583
s(F6.727171322029716
F53.81737057623773
g1
tp571
I9
s(F19.027313840043536
F4.0
g3
tp572
I436
s(F1.681792830507429
F13.454342644059432
g3
tp573
I67
s(F2.0
F45.254833995939045
g1
tp574
I15
s(F1.4142135623730951
F13.454342644059432
g3
tp575
I70
s(F45.254833995939045
F1.681792830507429
g1
tp576
I622
s(F2.8284271247461903
F19.027313840043536
g3
tp577
I43
s(F64.0
F32.0
g1
tp578
I20
s(F38.05462768008707
F45.254833995939045
g1
tp579
I13
s(F2.0
F1.189207115002721
g3
tp580
I623
s(F9.513656920021768
F26.908685288118864
g1
tp581
I27
s(F4.0
F1.189207115002721
g1
tp582
I620
s(F2.378414230005442
F1.681792830507429
g1
tp583
I624
s(F45.254833995939045
F2.378414230005442
g1
tp584
I608
s(F13.454342644059432
F3.363585661014858
g1
tp585
I526
s(F9.513656920021768
F64.0
g3
tp586
I7
s(F4.756828460010884
F4.756828460010884
g3
tp587
I359
s(F9.513656920021768
F13.454342644059432
g3
tp588
I69
s(F45.254833995939045
F26.908685288118864
g3
tp589
I25
s(F1.189207115002721
F1.0
g1
tp590
I616
s(F19.027313840043536
F38.05462768008707
g3
tp591
I17
s(F38.05462768008707
F1.0
g1
tp592
I615
s(F38.05462768008707
F9.513656920021768
g1
tp593
I107
s(F4.0
F4.0
g1
tp594
I468
s(F1.4142135623730951
F45.254833995939045
g3
tp595
I13
s(F9.513656920021768
F1.0
g3
tp596
I620
s(F2.0
F38.05462768008707
g3
tp597
I15
s(F5.656854249492381
F1.0
g1
tp598
I620
s(F1.189207115002721
F2.0
g1
tp599
I615
s(F64.0
F2.0
g1
tp600
I619
s(F32.0
F1.189207115002721
g1
tp601
I619
s(F64.0
F4.0
g1
tp602
I486
s(F45.254833995939045
F9.513656920021768
g1
tp603
I117
s(F13.454342644059432
F38.05462768008707
g1
tp604
I15
s(F32.0
F1.0
g1
tp605
I617
s(F2.0
F5.656854249492381
g3
tp606
I269
s(F4.756828460010884
F64.0
g3
tp607
I8
s(F2.8284271247461903
F3.363585661014858
g1
tp608
I544
s(F64.0
F5.656854249492381
g1
tp609
I297
s(F53.81737057623773
F4.0
g1
tp610
I466
s(F16.0
F53.81737057623773
g1
tp611
I11
s(F2.0
F1.0
g3
tp612
I621
s(F1.0
F1.4142135623730951
g3
tp613
I623
s(F6.727171322029716
F22.627416997969522
g3
tp614
I30
s(F8.0
F26.908685288118864
g3
tp615
I27
s(F2.0
F1.0
g1
tp616
I621
s(F38.05462768008707
F11.313708498984761
g1
tp617
I83
s(F45.254833995939045
F1.189207115002721
g3
tp618
I620
s(F2.8284271247461903
F32.0
g3
tp619
I23
s(F19.027313840043536
F1.681792830507429
g3
tp620
I622
s(F4.0
F1.681792830507429
g3
tp621
I621
s(F45.254833995939045
F38.05462768008707
g3
tp622
I17
s(F2.378414230005442
F5.656854249492381
g1
tp623
I277
s(F8.0
F2.378414230005442
g1
tp624
I607
s(F1.189207115002721
F8.0
g3
tp625
I166
s(F3.363585661014858
F45.254833995939045
g3
tp626
I12
s(F45.254833995939045
F19.027313840043536
g1
tp627
I46
s(F45.254833995939045
F16.0
g1
tp628
I61
s(F19.027313840043536
F6.727171322029716
g3
tp629
I208
s(F1.189207115002721
F64.0
g1
tp630
I6
s(F1.4142135623730951
F1.4142135623730951
g3
tp631
I621
s(F22.627416997969522
F1.189207115002721
g1
tp632
I619
s(F1.0
F4.756828460010884
g3
tp633
I354
s(F5.656854249492381
F19.027313840043536
g1
tp634
I46
s(F22.627416997969522
F8.0
g1
tp635
I152
s(F1.189207115002721
F4.0
g3
tp636
I444
s(F64.0
F8.0
g1
tp637
I146
s(F8.0
F38.05462768008707
g3
tp638
I16
s(F4.0
F22.627416997969522
g3
tp639
I32
s(F38.05462768008707
F16.0
g1
tp640
I59
s(F9.513656920021768
F13.454342644059432
g1
tp641
I70
s(F1.189207115002721
F1.681792830507429
g3
tp642
I620
s(F64.0
F53.81737057623773
g3
tp643
I11
s(F32.0
F16.0
g3
tp644
I58
s(F1.189207115002721
F4.0
g1
tp645
I454
s(F16.0
F3.363585661014858
g3
tp646
I505
s(F1.681792830507429
F1.189207115002721
g1
tp647
I623
s(F45.254833995939045
F1.189207115002721
g1
tp648
I622
s(F2.0
F9.513656920021768
g1
tp649
I113
s(F1.189207115002721
F64.0
g3
tp650
I6
s(F8.0
F22.627416997969522
g1
tp651
I33
s(F4.0
F9.513656920021768
g3
tp652
I124
s(F26.908685288118864
F2.378414230005442
g1
tp653
I609
s(F32.0
F45.254833995939045
g1
tp654
I12
s(F3.363585661014858
F2.378414230005442
g3
tp655
I593
s(F22.627416997969522
F2.8284271247461903
g1
tp656
I583
s(F4.0
F2.0
g1
tp657
I619
s(F2.8284271247461903
F32.0
g1
tp658
I23
s(F5.656854249492381
F11.313708498984761
g1
tp659
I91
s(F38.05462768008707
F9.513656920021768
g3
tp660
I124
s(F11.313708498984761
F26.908685288118864
g1
tp661
I26
s(F26.908685288118864
F1.681792830507429
g3
tp662
I623
s(F16.0
F1.189207115002721
g3
tp663
I622
s(F38.05462768008707
F64.0
g1
tp664
I10
s(F1.0
F3.363585661014858
g1
tp665
I534
s(F3.363585661014858
F22.627416997969522
g3
tp666
I32
s(F1.4142135623730951
F8.0
g3
tp667
I158
s(F13.454342644059432
F2.378414230005442
g1
tp668
I610
s(F32.0
F11.313708498984761
g1
tp669
I83
s(F45.254833995939045
F5.656854249492381
g3
tp670
I289
s(F2.8284271247461903
F4.0
g1
tp671
I479
s(F6.727171322029716
F1.4142135623730951
g1
tp672
I624
s(F1.681792830507429
F26.908685288118864
g1
tp673
I27
s(F1.0
F2.8284271247461903
g3
tp674
I559
s(F22.627416997969522
F9.513656920021768
g1
tp675
I113
s(F9.513656920021768
F8.0
g3
tp676
I159
s(F11.313708498984761
F1.0
g3
tp677
I619
s(F16.0
F5.656854249492381
g1
tp678
I295
s(F4.0
F16.0
g1
tp679
I58
s(F45.254833995939045
F4.756828460010884
g1
tp680
I370
s(F4.0
F38.05462768008707
g3
tp681
I14
s(F2.8284271247461903
F6.727171322029716
g1
tp682
I204
s(F1.0
F45.254833995939045
g1
tp683
I10
s(F1.681792830507429
F3.363585661014858
g1
tp684
I541
s(F13.454342644059432
F9.513656920021768
g3
tp685
I123
s(F2.0
F2.378414230005442
g1
tp686
I611
s(F4.756828460010884
F45.254833995939045
g3
tp687
I10
s(F53.81737057623773
F22.627416997969522
g1
tp688
I30
s(F9.513656920021768
F6.727171322029716
g3
tp689
I210
s(F4.756828460010884
F1.0
g1
tp690
I619
s(F13.454342644059432
F5.656854249492381
g1
tp691
I273
s(F13.454342644059432
F19.027313840043536
g3
tp692
I41
s(F22.627416997969522
F1.0
g1
tp693
I617
s(F8.0
F13.454342644059432
g1
tp694
I78
s(F11.313708498984761
F11.313708498984761
g1
tp695
I82
s(F11.313708498984761
F13.454342644059432
g1
tp696
I70
s(F32.0
F2.378414230005442
g3
tp697
I591
s(F1.189207115002721
F13.454342644059432
g1
tp698
I68
s(F13.454342644059432
F8.0
g3
tp699
I150
s(F4.0
F26.908685288118864
g1
tp700
I23
s(F1.4142135623730951
F4.756828460010884
g3
tp701
I338
s(F64.0
F53.81737057623773
g1
tp702
I9
s(F1.189207115002721
F2.8284271247461903
g1
tp703
I589
s(F2.8284271247461903
F1.189207115002721
g3
tp704
I623
s(F26.908685288118864
F38.05462768008707
g3
tp705
I15
s(F1.4142135623730951
F19.027313840043536
g1
tp706
I42
s(F3.363585661014858
F3.363585661014858
g3
tp707
I519
s(F2.378414230005442
F2.0
g3
tp708
I623
s(F1.4142135623730951
F1.681792830507429
g1
tp709
I623
s(F3.363585661014858
F19.027313840043536
g1
tp710
I44
s(F26.908685288118864
F22.627416997969522
g1
tp711
I33
s(F19.027313840043536
F5.656854249492381
g1
tp712
I282
s(F9.513656920021768
F1.4142135623730951
g3
tp713
I623
s(F22.627416997969522
F22.627416997969522
g1
tp714
I35
s(F53.81737057623773
F6.727171322029716
g3
tp715
I210
s(F2.378414230005442
F3.363585661014858
g1
tp716
I523
s(F16.0
F4.0
g3
tp717
I431
s(F2.378414230005442
F2.378414230005442
g1
tp718
I604
s(F32.0
F19.027313840043536
g1
tp719
I45
s(F1.681792830507429
F2.378414230005442
g3
tp720
I601
s(F22.627416997969522
F2.8284271247461903
g3
tp721
I568
s(F1.0
F2.8284271247461903
g1
tp722
I579
s(F16.0
F32.0
g1
tp723
I22
s(F53.81737057623773
F38.05462768008707
g3
tp724
I14
s(F53.81737057623773
F1.681792830507429
g3
tp725
I623
s(F45.254833995939045
F3.363585661014858
g3
tp726
I508
s(F4.756828460010884
F2.0
g1
tp727
I620
s(F6.727171322029716
F53.81737057623773
g3
tp728
I11
s(F16.0
F3.363585661014858
g1
tp729
I543
s(F11.313708498984761
F1.681792830507429
g3
tp730
I622
s(F53.81737057623773
F64.0
g1
tp731
I8
s(F19.027313840043536
F11.313708498984761
g1
tp732
I90
s(F38.05462768008707
F13.454342644059432
g3
tp733
I73
s(F13.454342644059432
F6.727171322029716
g3
tp734
I206
s(F53.81737057623773
F9.513656920021768
g3
tp735
I118
s(F3.363585661014858
F16.0
g1
tp736
I57
s(F11.313708498984761
F22.627416997969522
g1
tp737
I34
s(F5.656854249492381
F13.454342644059432
g1
tp738
I69
s(F32.0
F8.0
g1
tp739
I147
s(F9.513656920021768
F38.05462768008707
g3
tp740
I15
s(F6.727171322029716
F2.378414230005442
g1
tp741
I612
s(F9.513656920021768
F19.027313840043536
g3
tp742
I39
s(F22.627416997969522
F3.363585661014858
g1
tp743
I530
s(F13.454342644059432
F32.0
g1
tp744
I21
s(F2.8284271247461903
F4.756828460010884
g3
tp745
I341
s(F1.189207115002721
F2.0
g3
tp746
I617
s(F11.313708498984761
F1.681792830507429
g1
tp747
I621
s(F22.627416997969522
F4.756828460010884
g1
tp748
I380
s(F11.313708498984761
F53.81737057623773
g3
tp749
I7
s(F64.0
F11.313708498984761
g1
tp750
I83
s(F2.8284271247461903
F5.656854249492381
g3
tp751
I265
s(F38.05462768008707
F38.05462768008707
g3
tp752
I18
s(F1.681792830507429
F1.4142135623730951
g1
tp753
I623
s(F9.513656920021768
F1.0
g1
tp754
I616
s(F4.0
F8.0
g1
tp755
I148
s(F26.908685288118864
F45.254833995939045
g1
tp756
I11
s(F16.0
F4.756828460010884
g1
tp757
I383
s(F22.627416997969522
F64.0
g3
tp758
I9
s(F2.0
F2.378414230005442
g3
tp759
I599
s(F38.05462768008707
F19.027313840043536
g3
tp760
I46
s(F11.313708498984761
F2.0
g3
tp761
I618
s(F32.0
F1.4142135623730951
g3
tp762
I623
s(F2.378414230005442
F11.313708498984761
g1
tp763
I84
s(F5.656854249492381
F6.727171322029716
g1
tp764
I211
s(F53.81737057623773
F38.05462768008707
g1
tp765
I13
s(F13.454342644059432
F1.681792830507429
g3
tp766
I620
s(F1.681792830507429
F32.0
g1
tp767
I20
s(F4.756828460010884
F4.0
g3
tp768
I427
s(F22.627416997969522
F1.681792830507429
g1
tp769
I620
s(F22.627416997969522
F1.4142135623730951
g3
tp770
I619
s(F1.0
F2.0
g1
tp771
I617
s(F13.454342644059432
F1.0
g1
tp772
I618
s(F2.8284271247461903
F16.0
g3
tp773
I56
s(F8.0
F19.027313840043536
g3
tp774
I44
s(F1.0
F5.656854249492381
g3
tp775
I274
s(F1.681792830507429
F2.0
g1
tp776
I620
s(F9.513656920021768
F1.189207115002721
g1
tp777
I618
s(F2.0
F2.8284271247461903
g1
tp778
I588
s(F16.0
F26.908685288118864
g3
tp779
I24
s(F22.627416997969522
F32.0
g3
tp780
I17
s(F1.0
F32.0
g3
tp781
I19
s(F1.189207115002721
F8.0
g1
tp782
I153
s(F4.756828460010884
F8.0
g1
tp783
I148
s(F8.0
F2.378414230005442
g3
tp784
I604
s(F1.681792830507429
F32.0
g3
tp785
I21
s(F22.627416997969522
F26.908685288118864
g1
tp786
I26
s(F64.0
F1.189207115002721
g3
tp787
I622
s(F38.05462768008707
F26.908685288118864
g1
tp788
I27
s(F6.727171322029716
F1.189207115002721
g1
tp789
I620
s(F13.454342644059432
F22.627416997969522
g3
tp790
I32
s(F32.0
F5.656854249492381
g1
tp791
I289
s(F9.513656920021768
F26.908685288118864
g3
tp792
I27
s(F64.0
F64.0
g1
tp793
I4
s(F1.4142135623730951
F64.0
g3
tp794
I7
s(F2.378414230005442
F45.254833995939045
g3
tp795
I12
s(F2.8284271247461903
F11.313708498984761
g1
tp796
I85
s(F2.0
F4.0
g1
tp797
I470
s(F4.0
F64.0
g1
tp798
I6
s(F2.0
F3.363585661014858
g1
tp799
I539
s(F16.0
F9.513656920021768
g3
tp800
I115
s(F1.4142135623730951
F38.05462768008707
g1
tp801
I16
s(F9.513656920021768
F32.0
g1
tp802
I20
s(F26.908685288118864
F2.8284271247461903
g1
tp803
I576
s(F8.0
F2.0
g3
tp804
I620
s(F3.363585661014858
F9.513656920021768
g3
tp805
I117
s(F19.027313840043536
F2.8284271247461903
g3
tp806
I553
s(F26.908685288118864
F13.454342644059432
g3
tp807
I71
s(F2.8284271247461903
F1.0
g3
tp808
I623
s(F53.81737057623773
F4.0
g3
tp809
I431
s(F45.254833995939045
F2.8284271247461903
g3
tp810
I560
s(F26.908685288118864
F22.627416997969522
g3
tp811
I34
s(F3.363585661014858
F5.656854249492381
g1
tp812
I287
s(F3.363585661014858
F38.05462768008707
g3
tp813
I16
s(F32.0
F64.0
g1
tp814
I8
s(F53.81737057623773
F2.0
g1
tp815
I618
s(F8.0
F16.0
g3
tp816
I56
s(F38.05462768008707
F2.8284271247461903
g1
tp817
I578
s(F8.0
F9.513656920021768
g1
tp818
I119
s(F53.81737057623773
F45.254833995939045
g3
tp819
I12
s(F45.254833995939045
F3.363585661014858
g1
tp820
I540
s(F22.627416997969522
F22.627416997969522
g3
tp821
I36
s(F2.378414230005442
F3.363585661014858
g3
tp822
I509
s(F13.454342644059432
F2.8284271247461903
g3
tp823
I564
s(F1.681792830507429
F2.8284271247461903
g3
tp824
I564
s(F6.727171322029716
F1.681792830507429
g1
tp825
I622
s(F8.0
F8.0
g1
tp826
I158
s(F4.756828460010884
F16.0
g3
tp827
I57
s(F2.378414230005442
F2.378414230005442
g3
tp828
I606
s(F8.0
F1.681792830507429
g3
tp829
I622
s(F5.656854249492381
F26.908685288118864
g3
tp830
I21
s(F16.0
F2.0
g3
tp831
I614
s(F2.8284271247461903
F2.0
g3
tp832
I611
s(F4.0
F2.378414230005442
g3
tp833
I594
s(F3.363585661014858
F11.313708498984761
g1
tp834
I85
s(F64.0
F2.8284271247461903
g1
tp835
I593
s(F38.05462768008707
F3.363585661014858
g3
tp836
I512
s(F16.0
F16.0
g1
tp837
I62
s(F64.0
F1.189207115002721
g1
tp838
I622
s(F5.656854249492381
F1.189207115002721
g3
tp839
I620
s(F1.189207115002721
F6.727171322029716
g1
tp840
I211
s(F22.627416997969522
F2.378414230005442
g1
tp841
I606
s(F1.0
F1.681792830507429
g1
tp842
I622
s(F64.0
F22.627416997969522
g3
tp843
I34
s(F22.627416997969522
F13.454342644059432
g1
tp844
I74
s(F38.05462768008707
F2.0
g1
tp845
I618
s(F13.454342644059432
F26.908685288118864
g1
tp846
I25
s(F64.0
F32.0
g3
tp847
I19
s(F32.0
F53.81737057623773
g3
tp848
I8
s(F6.727171322029716
F32.0
g3
tp849
I21
s(F19.027313840043536
F16.0
g3
tp850
I63
s(F1.4142135623730951
F53.81737057623773
g3
tp851
I9
s(F1.0
F4.0
g3
tp852
I423
s(F5.656854249492381
F22.627416997969522
g1
tp853
I33
s(F3.363585661014858
F32.0
g1
tp854
I21
s(F19.027313840043536
F53.81737057623773
g3
tp855
I9
s(F16.0
F1.0
g1
tp856
I617
s(F1.4142135623730951
F53.81737057623773
g1
tp857
I9
s(F4.0
F32.0
g3
tp858
I20
s(F4.756828460010884
F8.0
g3
tp859
I142
s(F1.0
F19.027313840043536
g3
tp860
I50
s(F19.027313840043536
F2.378414230005442
g3
tp861
I592
s(F64.0
F26.908685288118864
g1
tp862
I27
s(F2.378414230005442
F4.756828460010884
g1
tp863
I371
s(F32.0
F64.0
g3
tp864
I6
s(F3.363585661014858
F1.189207115002721
g1
tp865
I623
s(F9.513656920021768
F9.513656920021768
g1
tp866
I115
s(F38.05462768008707
F1.189207115002721
g1
tp867
I619
s(F4.756828460010884
F6.727171322029716
g1
tp868
I210
s(F1.0
F45.254833995939045
g3
tp869
I10
s(F64.0
F2.378414230005442
g1
tp870
I612
s(F19.027313840043536
F2.378414230005442
g1
tp871
I607
s(F6.727171322029716
F26.908685288118864
g3
tp872
I23
s(F5.656854249492381
F2.8284271247461903
g3
tp873
I567
s(F11.313708498984761
F13.454342644059432
g3
tp874
I77
s(F1.0
F13.454342644059432
g1
tp875
I74
s(F1.681792830507429
F13.454342644059432
g1
tp876
I75
s(F3.363585661014858
F13.454342644059432
g3
tp877
I67
s(F26.908685288118864
F1.189207115002721
g1
tp878
I620
s(F11.313708498984761
F38.05462768008707
g1
tp879
I18
s(F11.313708498984761
F45.254833995939045
g1
tp880
I14
s(F8.0
F3.363585661014858
g1
tp881
I531
s(F2.0
F45.254833995939045
g3
tp882
I11
s(F1.189207115002721
F4.756828460010884
g3
tp883
I341
s(F6.727171322029716
F4.756828460010884
g1
tp884
I376
s(F1.681792830507429
F22.627416997969522
g1
tp885
I43
s(F5.656854249492381
F26.908685288118864
g1
tp886
I26
s(F13.454342644059432
F6.727171322029716
g1
tp887
I184
s(F8.0
F53.81737057623773
g3
tp888
I9
s(F16.0
F8.0
g3
tp889
I157
s(F45.254833995939045
F8.0
g1
tp890
I141
s(F64.0
F38.05462768008707
g1
tp891
I15
s(F13.454342644059432
F13.454342644059432
g1
tp892
I69
s(F2.8284271247461903
F2.8284271247461903
g3
tp893
I562
s(F6.727171322029716
F5.656854249492381
g3
tp894
I281
s(F53.81737057623773
F5.656854249492381
g1
tp895
I279
s(F2.0
F11.313708498984761
g3
tp896
I92
s(F1.189207115002721
F2.8284271247461903
g3
tp897
I568
s(F2.8284271247461903
F11.313708498984761
g3
tp898
I94
s(F2.0
F5.656854249492381
g1
tp899
I286
s(F1.189207115002721
F1.4142135623730951
g3
tp900
I622
s(F45.254833995939045
F64.0
g3
tp901
I5
s(F45.254833995939045
F45.254833995939045
g1
tp902
I12
s(F1.189207115002721
F6.727171322029716
g3
tp903
I221
s(F1.681792830507429
F9.513656920021768
g1
tp904
I116
s(F45.254833995939045
F4.0
g1
tp905
I472
s(F1.0
F53.81737057623773
g3
tp906
I10
s(F2.378414230005442
F1.4142135623730951
g1
tp907
I624
s(F2.8284271247461903
F22.627416997969522
g1
tp908
I39
s(F13.454342644059432
F3.363585661014858
g3
tp909
I505
s(F45.254833995939045
F13.454342644059432
g1
tp910
I72
s(F1.4142135623730951
F4.756828460010884
g1
tp911
I374
s(F1.0
F53.81737057623773
g1
tp912
I7
s(F1.681792830507429
F45.254833995939045
g3
tp913
I9
s(F1.681792830507429
F38.05462768008707
g3
tp914
I14
s(F4.0
F5.656854249492381
g3
tp915
I281
s(F2.0
F53.81737057623773
g1
tp916
I9
s(F64.0
F2.378414230005442
g3
tp917
I602
s(F1.189207115002721
F22.627416997969522
g3
tp918
I34
s(F26.908685288118864
F53.81737057623773
g3
tp919
I11
s(F45.254833995939045
F2.8284271247461903
g1
tp920
I589
s(F3.363585661014858
F1.681792830507429
g3
tp921
I623
s(F3.363585661014858
F2.0
g1
tp922
I621
s(F6.727171322029716
F64.0
g1
tp923
I8
s(F5.656854249492381
F2.0
g1
tp924
I617
s(F9.513656920021768
F2.378414230005442
g1
tp925
I615
s(F2.8284271247461903
F26.908685288118864
g3
tp926
I30
s(F5.656854249492381
F53.81737057623773
g1
tp927
I10
s(F38.05462768008707
F32.0
g1
tp928
I21
s(F5.656854249492381
F2.0
g3
tp929
I612
s(F22.627416997969522
F53.81737057623773
g1
tp930
I8
s(F1.681792830507429
F1.189207115002721
g3
tp931
I620
s(F32.0
F6.727171322029716
g3
tp932
I198
s(F64.0
F19.027313840043536
g1
tp933
I44
s(F16.0
F5.656854249492381
g3
tp934
I278
s(F45.254833995939045
F6.727171322029716
g1
tp935
I201
s(F45.254833995939045
F1.681792830507429
g3
tp936
I623
s(F2.0
F11.313708498984761
g1
tp937
I85
s(F2.0
F22.627416997969522
g1
tp938
I36
s(F2.8284271247461903
F1.189207115002721
g1
tp939
I620
s(F3.363585661014858
F38.05462768008707
g1
tp940
I16
s(F5.656854249492381
F8.0
g3
tp941
I151
s(F2.378414230005442
F26.908685288118864
g1
tp942
I26
s(F2.378414230005442
F1.0
g1
tp943
I621
s(F1.0
F22.627416997969522
g1
tp944
I35
s(F64.0
F4.756828460010884
g3
tp945
I341
s(F2.8284271247461903
F9.513656920021768
g1
tp946
I110
s(F16.0
F22.627416997969522
g1
tp947
I33
s(F32.0
F22.627416997969522
g3
tp948
I34
s(F8.0
F1.189207115002721
g1
tp949
I622
s(F3.363585661014858
F19.027313840043536
g3
tp950
I49
s(F2.378414230005442
F22.627416997969522
g1
tp951
I36
s(F26.908685288118864
F6.727171322029716
g3
tp952
I200
s(F11.313708498984761
F16.0
g3
tp953
I56
s(F1.681792830507429
F2.378414230005442
g1
tp954
I611
s(F38.05462768008707
F4.0
g3
tp955
I441
s(F1.189207115002721
F38.05462768008707
g3
tp956
I16
s(F19.027313840043536
F22.627416997969522
g1
tp957
I38
s(F26.908685288118864
F2.0
g1
tp958
I622
s(F32.0
F1.189207115002721
g3
tp959
I623
s(F5.656854249492381
F19.027313840043536
g3
tp960
I40
s(F45.254833995939045
F64.0
g1
tp961
I7
s(F3.363585661014858
F32.0
g3
tp962
I19
s(F1.189207115002721
F2.378414230005442
g3
tp963
I605
s(F19.027313840043536
F9.513656920021768
g3
tp964
I122
s(F2.378414230005442
F1.681792830507429
g3
tp965
I623
s(F53.81737057623773
F1.189207115002721
g3
tp966
I623
s(F6.727171322029716
F8.0
g1
tp967
I136
s(F6.727171322029716
F3.363585661014858
g1
tp968
I542
s(F13.454342644059432
F38.05462768008707
g3
tp969
I13
s(F13.454342644059432
F16.0
g3
tp970
I62
s(F11.313708498984761
F22.627416997969522
g3
tp971
I32
s(F5.656854249492381
F16.0
g1
tp972
I57
s(F1.189207115002721
F1.4142135623730951
g1
tp973
I622
s(F22.627416997969522
F4.756828460010884
g3
tp974
I366
s(F19.027313840043536
F32.0
g3
tp975
I20
s(F6.727171322029716
F45.254833995939045
g1
tp976
I12
s(F26.908685288118864
F45.254833995939045
g3
tp977
I13
s(F32.0
F4.756828460010884
g1
tp978
I395
s(F1.681792830507429
F11.313708498984761
g3
tp979
I87
s(F4.756828460010884
F32.0
g3
tp980
I20
s(F4.0
F1.189207115002721
g3
tp981
I621
s(F8.0
F11.313708498984761
g1
tp982
I95
s(F4.0
F2.378414230005442
g1
tp983
I611
s(F38.05462768008707
F1.4142135623730951
g3
tp984
I621
s(F1.4142135623730951
F19.027313840043536
g3
tp985
I47
s(F4.0
F11.313708498984761
g1
tp986
I87
s(F3.363585661014858
F53.81737057623773
g1
tp987
I9
s(F2.378414230005442
F1.189207115002721
g1
tp988
I624
s(F19.027313840043536
F32.0
g1
tp989
I21
s(F4.756828460010884
F38.05462768008707
g3
tp990
I15
s(F2.0
F1.4142135623730951
g3
tp991
I623
s(F5.656854249492381
F4.756828460010884
g3
tp992
I350
s(F2.0
F2.0
g3
tp993
I612
s(F1.4142135623730951
F6.727171322029716
g3
tp994
I215
s(F11.313708498984761
F4.756828460010884
g1
tp995
I374
s(F13.454342644059432
F45.254833995939045
g1
tp996
I13
s(F53.81737057623773
F45.254833995939045
g1
tp997
I11
s(F26.908685288118864
F26.908685288118864
g1
tp998
I28
s(F19.027313840043536
F5.656854249492381
g3
tp999
I277
s(F1.0
F2.0
g3
tp1000
I618
s(F9.513656920021768
F2.8284271247461903
g3
tp1001
I568
s(F4.756828460010884
F64.0
g1
tp1002
I7
s(F13.454342644059432
F13.454342644059432
g3
tp1003
I81
s(F2.378414230005442
F19.027313840043536
g3
tp1004
I45
s(F6.727171322029716
F2.0
g1
tp1005
I621
s(F9.513656920021768
F1.681792830507429
g3
tp1006
I622
s(F16.0
F38.05462768008707
g3
tp1007
I16
s(F53.81737057623773
F53.81737057623773
g1
tp1008
I11
s(F9.513656920021768
F16.0
g1
tp1009
I58
s(F6.727171322029716
F4.0
g1
tp1010
I469
s(F5.656854249492381
F8.0
g1
tp1011
I155
s(F6.727171322029716
F13.454342644059432
g3
tp1012
I72
s(F5.656854249492381
F13.454342644059432
g3
tp1013
I67
s(F22.627416997969522
F5.656854249492381
g1
tp1014
I277
s(F1.4142135623730951
F2.378414230005442
g3
tp1015
I602
s(F2.8284271247461903
F53.81737057623773
g1
tp1016
I9
s(F53.81737057623773
F22.627416997969522
g3
tp1017
I33
s(F1.4142135623730951
F64.0
g1
tp1018
I7
s(F13.454342644059432
F4.0
g3
tp1019
I434
s(F2.378414230005442
F4.756828460010884
g3
tp1020
I356
s(F53.81737057623773
F1.0
g3
tp1021
I621
s(F9.513656920021768
F9.513656920021768
g3
tp1022
I116
s(F6.727171322029716
F9.513656920021768
g1
tp1023
I109
s(F3.363585661014858
F64.0
g3
tp1024
I7
s(F4.756828460010884
F11.313708498984761
g1
tp1025
I88
s(F1.0
F1.189207115002721
g1
tp1026
I616
s(F19.027313840043536
F45.254833995939045
g1
tp1027
I14
s(F1.681792830507429
F26.908685288118864
g3
tp1028
I26
s(F22.627416997969522
F26.908685288118864
g3
tp1029
I27
s(F16.0
F1.4142135623730951
g3
tp1030
I623
s(F3.363585661014858
F5.656854249492381
g3
tp1031
I265
s(F1.0
F11.313708498984761
g1
tp1032
I89
s(F32.0
F26.908685288118864
g3
tp1033
I24
s(F6.727171322029716
F2.0
g3
tp1034
I618
s(F1.4142135623730951
F16.0
g1
tp1035
I55
s(F9.513656920021768
F16.0
g3
tp1036
I59
s(F1.0
F1.189207115002721
g3
tp1037
I623
s(F22.627416997969522
F2.0
g1
tp1038
I619
s(F38.05462768008707
F38.05462768008707
g1
tp1039
I18
s(F4.0
F53.81737057623773
g1
tp1040
I11
s(F2.8284271247461903
F64.0
g3
tp1041
I6
s(F22.627416997969522
F4.0
g1
tp1042
I469
s(F2.378414230005442
F2.8284271247461903
g1
tp1043
I585
s(F8.0
F9.513656920021768
g3
tp1044
I116
s(F38.05462768008707
F1.4142135623730951
g1
tp1045
I621
s(F3.363585661014858
F16.0
g3
tp1046
I58
s(F19.027313840043536
F26.908685288118864
g3
tp1047
I25
s(F3.363585661014858
F6.727171322029716
g1
tp1048
I213
s(F5.656854249492381
F3.363585661014858
g1
tp1049
I530
s(F22.627416997969522
F5.656854249492381
g3
tp1050
I289
s(F1.681792830507429
F22.627416997969522
g3
tp1051
I33
s(F8.0
F2.8284271247461903
g3
tp1052
I560
s(F45.254833995939045
F9.513656920021768
g3
tp1053
I115
s(F22.627416997969522
F1.681792830507429
g3
tp1054
I623
s(F3.363585661014858
F4.0
g3
tp1055
I443
s(F45.254833995939045
F19.027313840043536
g3
tp1056
I42
s(F38.05462768008707
F3.363585661014858
g1
tp1057
I537
s(F19.027313840043536
F19.027313840043536
g3
tp1058
I45
s(F45.254833995939045
F53.81737057623773
g3
tp1059
I8
s(F9.513656920021768
F4.756828460010884
g1
tp1060
I370
s(F26.908685288118864
F8.0
g1
tp1061
I142
s(F13.454342644059432
F19.027313840043536
g1
tp1062
I46
s(F22.627416997969522
F6.727171322029716
g3
tp1063
I214
s(F26.908685288118864
F8.0
g3
tp1064
I158
s(F4.0
F2.8284271247461903
g3
tp1065
I563
s(F11.313708498984761
F8.0
g3
tp1066
I157
s(F3.363585661014858
F4.756828460010884
g3
tp1067
I345
s(F32.0
F26.908685288118864
g1
tp1068
I23
s(F16.0
F2.0
g1
tp1069
I621
s(F8.0
F32.0
g1
tp1070
I24
s(F9.513656920021768
F2.0
g3
tp1071
I615
s(F4.756828460010884
F2.378414230005442
g3
tp1072
I603
s(F8.0
F22.627416997969522
g3
tp1073
I35
s(F4.0
F64.0
g3
tp1074
I8
s(F8.0
F3.363585661014858
g3
tp1075
I504
s(F38.05462768008707
F1.0
g3
tp1076
I619
s(F26.908685288118864
F4.0
g1
tp1077
I460
s(F6.727171322029716
F1.0
g3
tp1078
I620
s(F1.189207115002721
F9.513656920021768
g1
tp1079
I111
s(F16.0
F6.727171322029716
g3
tp1080
I210
s(F32.0
F32.0
g3
tp1081
I20
s(F1.4142135623730951
F13.454342644059432
g1
tp1082
I73
s(F11.313708498984761
F16.0
g1
tp1083
I57
s(F26.908685288118864
F1.681792830507429
g1
tp1084
I622
s(F26.908685288118864
F3.363585661014858
g1
tp1085
I529
s(F5.656854249492381
F32.0
g1
tp1086
I22
s(F45.254833995939045
F16.0
g3
tp1087
I54
s(F1.189207115002721
F53.81737057623773
g1
tp1088
I7
s(F45.254833995939045
F11.313708498984761
g3
tp1089
I85
s(F53.81737057623773
F11.313708498984761
g3
tp1090
I92
s(F4.0
F45.254833995939045
g1
tp1091
I13
s(F9.513656920021768
F6.727171322029716
g1
tp1092
I204
s(F2.0
F4.0
g3
tp1093
I431
s(F1.4142135623730951
F5.656854249492381
g1
tp1094
I279
s(F4.0
F9.513656920021768
g1
tp1095
I113
s(F1.4142135623730951
F1.189207115002721
g1
tp1096
I618
s(F11.313708498984761
F4.0
g1
tp1097
I472
s(F1.681792830507429
F8.0
g1
tp1098
I147
s(F2.0
F1.681792830507429
g3
tp1099
I622
s(F16.0
F9.513656920021768
g1
tp1100
I106
s(F2.0
F26.908685288118864
g1
tp1101
I25
s(F19.027313840043536
F45.254833995939045
g3
tp1102
I11
s(F19.027313840043536
F9.513656920021768
g1
tp1103
I118
s(F16.0
F64.0
g3
tp1104
I4
s(F3.363585661014858
F8.0
g3
tp1105
I161
s(F3.363585661014858
F45.254833995939045
g1
tp1106
I13
s(F9.513656920021768
F5.656854249492381
g3
tp1107
I268
s(F32.0
F2.378414230005442
g1
tp1108
I606
s(F53.81737057623773
F1.681792830507429
g1
tp1109
I623
s(F38.05462768008707
F2.0
g3
tp1110
I614
s(F3.363585661014858
F1.0
g1
tp1111
I617
s(F1.189207115002721
F1.681792830507429
g1
tp1112
I621
s(F1.681792830507429
F2.0
g3
tp1113
I617
s(F1.189207115002721
F4.756828460010884
g1
tp1114
I368
s(F19.027313840043536
F3.363585661014858
g3
tp1115
I511
s(F1.189207115002721
F1.0
g3
tp1116
I622
s(F38.05462768008707
F22.627416997969522
g3
tp1117
I35
s(F1.189207115002721
F5.656854249492381
g1
tp1118
I288
s(F9.513656920021768
F2.378414230005442
g3
tp1119
I600
s(F26.908685288118864
F11.313708498984761
g3
tp1120
I93
s(F64.0
F38.05462768008707
g3
tp1121
I14
s(F3.363585661014858
F1.0
g3
tp1122
I621
s(F2.378414230005442
F32.0
g1
tp1123
I19
s(F1.4142135623730951
F2.378414230005442
g1
tp1124
I606
s(F16.0
F45.254833995939045
g3
tp1125
I12
s(F32.0
F1.681792830507429
g3
tp1126
I623
s(F4.0
F3.363585661014858
g3
tp1127
I503
s(F5.656854249492381
F4.0
g3
tp1128
I442
s(F22.627416997969522
F45.254833995939045
g1
tp1129
I13
s(F1.4142135623730951
F4.0
g3
tp1130
I422
s(F2.378414230005442
F9.513656920021768
g3
tp1131
I104
s(F1.0
F3.363585661014858
g3
tp1132
I502
s(F16.0
F2.8284271247461903
g3
tp1133
I558
s(F2.0
F53.81737057623773
g3
tp1134
I8
s(F1.0
F19.027313840043536
g1
tp1135
I46
s(F2.0
F26.908685288118864
g3
tp1136
I26
s(F19.027313840043536
F1.4142135623730951
g3
tp1137
I621
s(F1.0
F64.0
g1
tp1138
I6
s(F9.513656920021768
F19.027313840043536
g1
tp1139
I41
s(F16.0
F1.4142135623730951
g1
tp1140
I621
s(F6.727171322029716
F6.727171322029716
g3
tp1141
I209
s(F11.313708498984761
F3.363585661014858
g3
tp1142
I510
s(F5.656854249492381
F11.313708498984761
g3
tp1143
I88
s(F2.8284271247461903
F13.454342644059432
g1
tp1144
I66
s(F2.378414230005442
F2.0
g1
tp1145
I620
s(F2.0
F19.027313840043536
g1
tp1146
I43
s(F1.0
F5.656854249492381
g1
tp1147
I291
s(F4.756828460010884
F26.908685288118864
g1
tp1148
I30
s(F1.681792830507429
F16.0
g1
tp1149
I60
s(F11.313708498984761
F1.0
g1
tp1150
I618
s(F26.908685288118864
F4.0
g3
tp1151
I421
s(F19.027313840043536
F1.189207115002721
g1
tp1152
I617
s(F6.727171322029716
F19.027313840043536
g1
tp1153
I42
s(F38.05462768008707
F53.81737057623773
g3
tp1154
I9
s(F53.81737057623773
F1.189207115002721
g1
tp1155
I617
s(F2.8284271247461903
F8.0
g3
tp1156
I153
s(F1.4142135623730951
F6.727171322029716
g1
tp1157
I203
s(F26.908685288118864
F1.189207115002721
g3
tp1158
I623
s(F64.0
F22.627416997969522
g1
tp1159
I32
s(F2.0
F1.4142135623730951
g1
tp1160
I624
s(F1.681792830507429
F53.81737057623773
g3
tp1161
I8
s(F22.627416997969522
F3.363585661014858
g3
tp1162
I514
s(F64.0
F13.454342644059432
g1
tp1163
I65
s(F6.727171322029716
F1.4142135623730951
g3
tp1164
I623
s(F1.189207115002721
F11.313708498984761
g3
tp1165
I92
s(F4.756828460010884
F4.0
g1
tp1166
I463
s(F38.05462768008707
F4.756828460010884
g1
tp1167
I358
s(F53.81737057623773
F3.363585661014858
g1
tp1168
I544
s(F4.756828460010884
F1.681792830507429
g1
tp1169
I624
s(F64.0
F8.0
g3
tp1170
I152
s(F38.05462768008707
F2.8284271247461903
g3
tp1171
I566
s(F45.254833995939045
F22.627416997969522
g1
tp1172
I37
s(F4.756828460010884
F13.454342644059432
g3
tp1173
I75
s(F22.627416997969522
F19.027313840043536
g1
tp1174
I47
s(F45.254833995939045
F1.0
g1
tp1175
I620
s(F8.0
F4.0
g1
tp1176
I463
s(F1.681792830507429
F1.0
g3
tp1177
I619
s(F2.378414230005442
F8.0
g1
tp1178
I137
s(F26.908685288118864
F32.0
g1
tp1179
I20
s(F8.0
F64.0
g3
tp1180
I7
s(F4.756828460010884
F3.363585661014858
g3
tp1181
I488
s(F64.0
F4.0
g3
tp1182
I429
s(F11.313708498984761
F5.656854249492381
g3
tp1183
I279
s(F1.189207115002721
F9.513656920021768
g3
tp1184
I121
s(F5.656854249492381
F5.656854249492381
g3
tp1185
I275
s(F2.0
F13.454342644059432
g1
tp1186
I69
s(F8.0
F26.908685288118864
g1
tp1187
I26
s(F8.0
F13.454342644059432
g3
tp1188
I74
s(F8.0
F1.681792830507429
g1
tp1189
I624
s(F1.681792830507429
F5.656854249492381
g1
tp1190
I282
s(F2.8284271247461903
F26.908685288118864
g1
tp1191
I31
s(F16.0
F53.81737057623773
g3
tp1192
I8
s(F9.513656920021768
F11.313708498984761
g1
tp1193
I92
s(F1.681792830507429
F4.756828460010884
g3
tp1194
I354
s(F6.727171322029716
F1.189207115002721
g3
tp1195
I621
s(F53.81737057623773
F26.908685288118864
g3
tp1196
I23
s(F38.05462768008707
F4.0
g1
tp1197
I460
s(F11.313708498984761
F11.313708498984761
g3
tp1198
I92
s(F13.454342644059432
F11.313708498984761
g3
tp1199
I94
s(F32.0
F2.8284271247461903
g1
tp1200
I582
s(F11.313708498984761
F2.378414230005442
g1
tp1201
I608
s(F1.0
F4.0
g1
tp1202
I476
s(F26.908685288118864
F5.656854249492381
g3
tp1203
I262
s(F1.0
F38.05462768008707
g1
tp1204
I14
s(F32.0
F1.4142135623730951
g1
tp1205
I623
s(F16.0
F64.0
g1
tp1206
I5
s(F4.756828460010884
F13.454342644059432
g1
tp1207
I75
s(F16.0
F19.027313840043536
g3
tp1208
I44
s(F5.656854249492381
F1.681792830507429
g1
tp1209
I619
s(F1.4142135623730951
F2.0
g3
tp1210
I614
s(F45.254833995939045
F2.378414230005442
g3
tp1211
I603
s(F32.0
F6.727171322029716
g1
tp1212
I202
s(F1.681792830507429
F6.727171322029716
g3
tp1213
I211
s(F6.727171322029716
F38.05462768008707
g3
tp1214
I16
s(F2.8284271247461903
F16.0
g1
tp1215
I59
s(F26.908685288118864
F5.656854249492381
g1
tp1216
I281
s(F32.0
F1.681792830507429
g1
tp1217
I622
s(F1.681792830507429
F4.0
g3
tp1218
I445
s(F13.454342644059432
F2.0
g3
tp1219
I613
s(F6.727171322029716
F22.627416997969522
g1
tp1220
I37
s(F5.656854249492381
F1.4142135623730951
g3
tp1221
I621
s(F4.756828460010884
F1.0
g3
tp1222
I619
s(F1.4142135623730951
F32.0
g3
tp1223
I22
s(F4.756828460010884
F5.656854249492381
g3
tp1224
I272
s(F53.81737057623773
F2.8284271247461903
g1
tp1225
I579
s(F1.189207115002721
F3.363585661014858
g1
tp1226
I531
s(F2.378414230005442
F1.0
g3
tp1227
I619
s(F4.756828460010884
F26.908685288118864
g3
tp1228
I24
s(F2.378414230005442
F6.727171322029716
g3
tp1229
I202
s(F4.0
F2.0
g3
tp1230
I619
s(F32.0
F53.81737057623773
g1
tp1231
I10
s(F64.0
F26.908685288118864
g3
tp1232
I26
s(F9.513656920021768
F2.8284271247461903
g1
tp1233
I591
s(F64.0
F4.756828460010884
g1
tp1234
I392
s(F26.908685288118864
F26.908685288118864
g3
tp1235
I29
s(F1.4142135623730951
F9.513656920021768
g1
tp1236
I111
s(F32.0
F4.0
g3
tp1237
I427
s(F32.0
F13.454342644059432
g1
tp1238
I70
s(F1.681792830507429
F45.254833995939045
g1
tp1239
I10
s(F38.05462768008707
F2.378414230005442
g3
tp1240
I599
s(F11.313708498984761
F64.0
g1
tp1241
I7
s(F64.0
F11.313708498984761
g3
tp1242
I88
s(F1.0
F9.513656920021768
g1
tp1243
I110
s(F64.0
F6.727171322029716
g3
tp1244
I210
s(F11.313708498984761
F5.656854249492381
g1
tp1245
I279
s(F8.0
F11.313708498984761
g3
tp1246
I91
s(F2.378414230005442
F6.727171322029716
g1
tp1247
I193
s(F1.189207115002721
F2.378414230005442
g1
tp1248
I608
s(F4.0
F19.027313840043536
g3
tp1249
I45
s(F9.513656920021768
F53.81737057623773
g3
tp1250
I12
s(F11.313708498984761
F4.756828460010884
g3
tp1251
I360
s(F2.378414230005442
F13.454342644059432
g3
tp1252
I76
s.